; Function Attrs: nounwind uwtable
define hidden i32 @drsuapi_dissect_struct_DsReplicaObjectIdentifier2(ptr noundef %0, i32 noundef %1, ptr noundef %2, ptr noundef %3, ptr noundef %4, ptr noundef %5, i32 noundef %6, i32 %7) local_unnamed_addr #0 {
  %9 = getelementptr inbounds nuw i8, ptr %4, i64 28
  %10 = load i32, ptr %9, align 4
  %.not = icmp ne i32 %10, 0
  %11 = and i32 %1, 3
  %.not32 = icmp eq i32 %11, 0
  %or.cond = or i1 %.not32, %.not
  %12 = and i32 %1, -4
  %13 = add i32 %12, 4
  %.0 = select i1 %or.cond, i32 %1, i32 %13
  %.not33 = icmp eq ptr %3, null
  br i1 %.not33, label %18, label %14

14:                                               ; preds = %8
  %15 = tail call ptr @proto_tree_add_item(ptr noundef nonnull %3, i32 noundef %6, ptr noundef %0, i32 noundef %.0, i32 noundef -1, i32 noundef 0) #5
  %16 = load i32, ptr @ett_drsuapi_drsuapi_DsReplicaObjectIdentifier2, align 4
  %17 = tail call ptr @proto_item_add_subtree(ptr noundef %15, i32 noundef %16) #5
  br label %18

18:                                               ; preds = %14, %8
  %.030 = phi ptr [ %15, %14 ], [ null, %8 ]
  %.029 = phi ptr [ %17, %14 ], [ null, %8 ]
  %19 = load i32, ptr @hf_drsuapi_drsuapi_DsReplicaObjectIdentifier2_guid, align 4
  %20 = tail call i32 @dissect_ndr_uuid_t(ptr noundef %0, i32 noundef %.0, ptr noundef %2, ptr noundef %.029, ptr noundef nonnull %4, ptr noundef %5, i32 noundef %19, ptr noundef null) #5
  %21 = load i32, ptr @hf_drsuapi_drsuapi_DsReplicaObjectIdentifier2_sid, align 4
  %22 = tail call i32 @dissect_ndr_nt_SID28(ptr noundef %0, i32 noundef %20, ptr noundef %2, ptr noundef %.029, ptr noundef nonnull %4, ptr noundef %5, i32 noundef %21) #5
  %23 = sub i32 %22, %.0
  tail call void @proto_item_set_len(ptr noundef %.030, i32 noundef %23) #5
  %24 = getelementptr inbounds nuw i8, ptr %4, i64 72
  %25 = load ptr, ptr %24, align 8
  %26 = getelementptr inbounds nuw i8, ptr %25, i64 96
  %27 = load i32, ptr %26, align 8
  %28 = and i32 %27, 1
  %.not34 = icmp eq i32 %28, 0
  br i1 %.not34, label %35, label %29

29:                                               ; preds = %18
  %30 = load i32, ptr %9, align 4
  %.not35 = icmp ne i32 %30, 0
  %31 = and i32 %22, 3
  %.not36 = icmp eq i32 %31, 0
  %or.cond37 = or i1 %.not36, %.not35
  br i1 %or.cond37, label %35, label %32

32:                                               ; preds = %29
  %33 = and i32 %22, -4
  %34 = add i32 %33, 4
  br label %35

35:                                               ; preds = %29, %32, %18
  %.1 = phi i32 [ %22, %29 ], [ %34, %32 ], [ %22, %18 ]
  ret i32 %.1
}